target datalayout = "e-m:e-p270:32:32-p271:32:32-p272:64:64-i64:64-i128:128-f80:128-n8:16:32:64-S128"
target triple = "x86_64-pc-linux-gnu"

%struct._generic_N_Vector = type { ptr, ptr, ptr }
%struct._N_VectorContent_SensWrapper = type { ptr, i32, i32 }

; Function Attrs: nounwind uwtable
define double @N_VMin_SensWrapper(ptr noundef %0) #0 {
  %2 = alloca ptr, align 8
  %3 = alloca i32, align 4
  %4 = alloca double, align 8
  %5 = alloca double, align 8
  store ptr %0, ptr %2, align 8, !tbaa !10
  call void @llvm.lifetime.start.p0(i64 4, ptr %3) #5
  call void @llvm.lifetime.start.p0(i64 8, ptr %4) #5
  call void @llvm.lifetime.start.p0(i64 8, ptr %5) #5
  %6 = load ptr, ptr %2, align 8, !tbaa !10
  %7 = getelementptr inbounds nuw %struct._generic_N_Vector, ptr %6, i32 0, i32 0
  %8 = load ptr, ptr %7, align 8, !tbaa !45
  %9 = getelementptr inbounds nuw %struct._N_VectorContent_SensWrapper, ptr %8, i32 0, i32 0
  %10 = load ptr, ptr %9, align 8, !tbaa !44
  %11 = getelementptr inbounds ptr, ptr %10, i64 0
  %12 = load ptr, ptr %11, align 8, !tbaa !10
  %13 = call double @N_VMin(ptr noundef %12)
  store double %13, ptr %4, align 8, !tbaa !61
  store i32 1, ptr %3, align 4, !tbaa !3
  br label %14

14:                                               ; preds = %39, %1
  %15 = load i32, ptr %3, align 4, !tbaa !3
  %16 = load ptr, ptr %2, align 8, !tbaa !10
  %17 = getelementptr inbounds nuw %struct._generic_N_Vector, ptr %16, i32 0, i32 0
  %18 = load ptr, ptr %17, align 8, !tbaa !45
  %19 = getelementptr inbounds nuw %struct._N_VectorContent_SensWrapper, ptr %18, i32 0, i32 1
  %20 = load i32, ptr %19, align 8, !tbaa !40
  %21 = icmp slt i32 %15, %20
  br i1 %21, label %22, label %42

22:                                               ; preds = %14
  %23 = load ptr, ptr %2, align 8, !tbaa !10
  %24 = getelementptr inbounds nuw %struct._generic_N_Vector, ptr %23, i32 0, i32 0
  %25 = load ptr, ptr %24, align 8, !tbaa !45
  %26 = getelementptr inbounds nuw %struct._N_VectorContent_SensWrapper, ptr %25, i32 0, i32 0
  %27 = load ptr, ptr %26, align 8, !tbaa !44
  %28 = load i32, ptr %3, align 4, !tbaa !3
  %29 = sext i32 %28 to i64
  %30 = getelementptr inbounds ptr, ptr %27, i64 %29
  %31 = load ptr, ptr %30, align 8, !tbaa !10
  %32 = call double @N_VMin(ptr noundef %31)
  store double %32, ptr %5, align 8, !tbaa !61
  %33 = load double, ptr %5, align 8, !tbaa !61
  %34 = load double, ptr %4, align 8, !tbaa !61
  %35 = fcmp olt double %33, %34
  br i1 %35, label %36, label %38

36:                                               ; preds = %22
  %37 = load double, ptr %5, align 8, !tbaa !61
  store double %37, ptr %4, align 8, !tbaa !61
  br label %38

38:                                               ; preds = %36, %22
  br label %39

39:                                               ; preds = %38
  %40 = load i32, ptr %3, align 4, !tbaa !3
  %41 = add nsw i32 %40, 1
  store i32 %41, ptr %3, align 4, !tbaa !3
  br label %14

42:                                               ; preds = %14
  %43 = load double, ptr %4, align 8, !tbaa !61
  call void @llvm.lifetime.end.p0(i64 8, ptr %5) #5
  call void @llvm.lifetime.end.p0(i64 8, ptr %4) #5
  call void @llvm.lifetime.end.p0(i64 4, ptr %3) #5
  ret double %43
}