; Function Attrs: nounwind uwtable
define double @N_VMin_SensWrapper(ptr noundef readonly captures(none) %0) #0 {
  %2 = load ptr, ptr %0, align 8, !tbaa !39
  %3 = load ptr, ptr %2, align 8, !tbaa !38
  %4 = load ptr, ptr %3, align 8, !tbaa !40
  %5 = tail call double @N_VMin(ptr noundef %4) #7
  %6 = load ptr, ptr %0, align 8, !tbaa !39
  %7 = getelementptr inbounds nuw i8, ptr %6, i64 8
  %8 = load i32, ptr %7, align 8, !tbaa !33
  %9 = icmp sgt i32 %8, 1
  br i1 %9, label %.lr.ph, label %._crit_edge

.lr.ph:                                           ; preds = %1, %.lr.ph
  %indvars.iv = phi i64 [ %indvars.iv.next, %.lr.ph ], [ 1, %1 ]
  %10 = phi ptr [ %16, %.lr.ph ], [ %6, %1 ]
  %.0911 = phi double [ %.1, %.lr.ph ], [ %5, %1 ]
  %11 = load ptr, ptr %10, align 8, !tbaa !38
  %12 = getelementptr inbounds nuw ptr, ptr %11, i64 %indvars.iv
  %13 = load ptr, ptr %12, align 8, !tbaa !40
  %14 = tail call double @N_VMin(ptr noundef %13) #7
  %15 = fcmp olt double %14, %.0911
  %.1 = select i1 %15, double %14, double %.0911
  %indvars.iv.next = add nuw nsw i64 %indvars.iv, 1
  %16 = load ptr, ptr %0, align 8, !tbaa !39
  %17 = getelementptr inbounds nuw i8, ptr %16, i64 8
  %18 = load i32, ptr %17, align 8, !tbaa !33
  %19 = sext i32 %18 to i64
  %20 = icmp slt i64 %indvars.iv.next, %19
  br i1 %20, label %.lr.ph, label %._crit_edge

._crit_edge:                                      ; preds = %.lr.ph, %1
  %.09.lcssa = phi double [ %5, %1 ], [ %.1, %.lr.ph ]
  ret double %.09.lcssa
}